; ModuleID = '21/1678.c'
source_filename = "21/1678.c"
target datalayout = "e-m:e-p270:32:32-p271:32:32-p272:64:64-i64:64-f80:128-n8:16:32:64-S128"
target triple = "x86_64-pc-linux-gnu"

@.str = private unnamed_addr constant [3 x i8] c"%d\00", align 1
@.str.1 = private unnamed_addr constant [4 x i8] c",%d\00", align 1

; Function Attrs: noinline nounwind uwtable
define dso_local i32 @main() #0 {
  %1 = alloca i32, align 4
  %2 = alloca i32, align 4
  %3 = alloca i32, align 4
  %4 = alloca i32, align 4
  %5 = alloca [300 x i32], align 16
  %6 = alloca i32, align 4
  %7 = alloca float, align 4
  %8 = alloca float, align 4
  %9 = alloca float, align 4
  %10 = alloca float, align 4
  store i32 0, i32* %1, align 4
  store i32 0, i32* %6, align 4
  store float 0.000000e+00, float* %7, align 4
  %11 = call i32 (i8*, ...) @__isoc99_scanf(i8* getelementptr inbounds ([3 x i8], [3 x i8]* @.str, i64 0, i64 0), i32* %2)
  store i32 0, i32* %3, align 4
  br label %12

12:                                               ; preds = %21, %0
  %13 = load i32, i32* %3, align 4
  %14 = load i32, i32* %2, align 4
  %15 = icmp slt i32 %13, %14
  br i1 %15, label %16, label %24

16:                                               ; preds = %12
  %17 = load i32, i32* %3, align 4
  %18 = sext i32 %17 to i64
  %19 = getelementptr inbounds [300 x i32], [300 x i32]* %5, i64 0, i64 %18
  %20 = call i32 (i8*, ...) @__isoc99_scanf(i8* getelementptr inbounds ([3 x i8], [3 x i8]* @.str, i64 0, i64 0), i32* %19)
  br label %21

21:                                               ; preds = %16
  %22 = load i32, i32* %3, align 4
  %23 = add nsw i32 %22, 1
  store i32 %23, i32* %3, align 4
  br label %12

24:                                               ; preds = %12
  store i32 0, i32* %3, align 4
  br label %25

25:                                               ; preds = %37, %24
  %26 = load i32, i32* %3, align 4
  %27 = load i32, i32* %2, align 4
  %28 = icmp slt i32 %26, %27
  br i1 %28, label %29, label %40

29:                                               ; preds = %25
  %30 = load float, float* %7, align 4
  %31 = load i32, i32* %3, align 4
  %32 = sext i32 %31 to i64
  %33 = getelementptr inbounds [300 x i32], [300 x i32]* %5, i64 0, i64 %32
  %34 = load i32, i32* %33, align 4
  %35 = sitofp i32 %34 to float
  %36 = fadd float %30, %35
  store float %36, float* %7, align 4
  br label %37

37:                                               ; preds = %29
  %38 = load i32, i32* %3, align 4
  %39 = add nsw i32 %38, 1
  store i32 %39, i32* %3, align 4
  br label %25

40:                                               ; preds = %25
  %41 = load float, float* %7, align 4
  %42 = load i32, i32* %2, align 4
  %43 = sitofp i32 %42 to float
  %44 = fdiv float %41, %43
  store float %44, float* %8, align 4
  store i32 0, i32* %3, align 4
  br label %45

45:                                               ; preds = %94, %40
  %46 = load i32, i32* %3, align 4
  %47 = load i32, i32* %2, align 4
  %48 = sub nsw i32 %47, 2
  %49 = icmp slt i32 %46, %48
  br i1 %49, label %50, label %97

50:                                               ; preds = %45
  store i32 0, i32* %4, align 4
  br label %51

51:                                               ; preds = %90, %50
  %52 = load i32, i32* %4, align 4
  %53 = load i32, i32* %2, align 4
  %54 = load i32, i32* %3, align 4
  %55 = sub nsw i32 %53, %54
  %56 = sub nsw i32 %55, 1
  %57 = icmp slt i32 %52, %56
  br i1 %57, label %58, label %93

58:                                               ; preds = %51
  %59 = load i32, i32* %4, align 4
  %60 = sext i32 %59 to i64
  %61 = getelementptr inbounds [300 x i32], [300 x i32]* %5, i64 0, i64 %60
  %62 = load i32, i32* %61, align 4
  %63 = load i32, i32* %4, align 4
  %64 = add nsw i32 %63, 1
  %65 = sext i32 %64 to i64
  %66 = getelementptr inbounds [300 x i32], [300 x i32]* %5, i64 0, i64 %65
  %67 = load i32, i32* %66, align 4
  %68 = icmp sgt i32 %62, %67
  br i1 %68, label %69, label %89

69:                                               ; preds = %58
  %70 = load i32, i32* %4, align 4
  %71 = sext i32 %70 to i64
  %72 = getelementptr inbounds [300 x i32], [300 x i32]* %5, i64 0, i64 %71
  %73 = load i32, i32* %72, align 4
  %74 = sitofp i32 %73 to float
  store float %74, float* %10, align 4
  %75 = load i32, i32* %4, align 4
  %76 = add nsw i32 %75, 1
  %77 = sext i32 %76 to i64
  %78 = getelementptr inbounds [300 x i32], [300 x i32]* %5, i64 0, i64 %77
  %79 = load i32, i32* %78, align 4
  %80 = load i32, i32* %4, align 4
  %81 = sext i32 %80 to i64
  %82 = getelementptr inbounds [300 x i32], [300 x i32]* %5, i64 0, i64 %81
  store i32 %79, i32* %82, align 4
  %83 = load float, float* %10, align 4
  %84 = fptosi float %83 to i32
  %85 = load i32, i32* %4, align 4
  %86 = add nsw i32 %85, 1
  %87 = sext i32 %86 to i64
  %88 = getelementptr inbounds [300 x i32], [300 x i32]* %5, i64 0, i64 %87
  store i32 %84, i32* %88, align 4
  br label %89

89:                                               ; preds = %69, %58
  br label %90

90:                                               ; preds = %89
  %91 = load i32, i32* %4, align 4
  %92 = add nsw i32 %91, 1
  store i32 %92, i32* %4, align 4
  br label %51

93:                                               ; preds = %51
  br label %94

94:                                               ; preds = %93
  %95 = load i32, i32* %3, align 4
  %96 = add nsw i32 %95, 1
  store i32 %96, i32* %3, align 4
  br label %45

97:                                               ; preds = %45
  %98 = load float, float* %8, align 4
  %99 = getelementptr inbounds [300 x i32], [300 x i32]* %5, i64 0, i64 0
  %100 = load i32, i32* %99, align 16
  %101 = sitofp i32 %100 to float
  %102 = fsub float %98, %101
  store float %102, float* %9, align 4
  store i32 0, i32* %3, align 4
  br label %103

103:                                              ; preds = %138, %97
  %104 = load i32, i32* %3, align 4
  %105 = load i32, i32* %2, align 4
  %106 = icmp slt i32 %104, %105
  br i1 %106, label %107, label %141

107:                                              ; preds = %103
  %108 = load i32, i32* %3, align 4
  %109 = sext i32 %108 to i64
  %110 = getelementptr inbounds [300 x i32], [300 x i32]* %5, i64 0, i64 %109
  %111 = load i32, i32* %110, align 4
  %112 = sitofp i32 %111 to float
  %113 = load float, float* %8, align 4
  %114 = fcmp olt float %112, %113
  br i1 %114, label %115, label %123

115:                                              ; preds = %107
  %116 = load float, float* %8, align 4
  %117 = load i32, i32* %3, align 4
  %118 = sext i32 %117 to i64
  %119 = getelementptr inbounds [300 x i32], [300 x i32]* %5, i64 0, i64 %118
  %120 = load i32, i32* %119, align 4
  %121 = sitofp i32 %120 to float
  %122 = fsub float %116, %121
  store float %122, float* %10, align 4
  br label %131

123:                                              ; preds = %107
  %124 = load i32, i32* %3, align 4
  %125 = sext i32 %124 to i64
  %126 = getelementptr inbounds [300 x i32], [300 x i32]* %5, i64 0, i64 %125
  %127 = load i32, i32* %126, align 4
  %128 = sitofp i32 %127 to float
  %129 = load float, float* %8, align 4
  %130 = fsub float %128, %129
  store float %130, float* %10, align 4
  br label %131

131:                                              ; preds = %123, %115
  %132 = load float, float* %10, align 4
  %133 = load float, float* %9, align 4
  %134 = fcmp ogt float %132, %133
  br i1 %134, label %135, label %137

135:                                              ; preds = %131
  %136 = load float, float* %10, align 4
  store float %136, float* %9, align 4
  br label %137

137:                                              ; preds = %135, %131
  br label %138

138:                                              ; preds = %137
  %139 = load i32, i32* %3, align 4
  %140 = add nsw i32 %139, 1
  store i32 %140, i32* %3, align 4
  br label %103

141:                                              ; preds = %103
  store i32 0, i32* %3, align 4
  br label %142

142:                                              ; preds = %193, %141
  %143 = load i32, i32* %3, align 4
  %144 = load i32, i32* %2, align 4
  %145 = icmp slt i32 %143, %144
  br i1 %145, label %146, label %196

146:                                              ; preds = %142
  %147 = load i32, i32* %3, align 4
  %148 = sext i32 %147 to i64
  %149 = getelementptr inbounds [300 x i32], [300 x i32]* %5, i64 0, i64 %148
  %150 = load i32, i32* %149, align 4
  %151 = sitofp i32 %150 to float
  %152 = load float, float* %8, align 4
  %153 = fcmp olt float %151, %152
  br i1 %153, label %154, label %162

154:                                              ; preds = %146
  %155 = load float, float* %8, align 4
  %156 = load i32, i32* %3, align 4
  %157 = sext i32 %156 to i64
  %158 = getelementptr inbounds [300 x i32], [300 x i32]* %5, i64 0, i64 %157
  %159 = load i32, i32* %158, align 4
  %160 = sitofp i32 %159 to float
  %161 = fsub float %155, %160
  store float %161, float* %10, align 4
  br label %170

162:                                              ; preds = %146
  %163 = load i32, i32* %3, align 4
  %164 = sext i32 %163 to i64
  %165 = getelementptr inbounds [300 x i32], [300 x i32]* %5, i64 0, i64 %164
  %166 = load i32, i32* %165, align 4
  %167 = sitofp i32 %166 to float
  %168 = load float, float* %8, align 4
  %169 = fsub float %167, %168
  store float %169, float* %10, align 4
  br label %170

170:                                              ; preds = %162, %154
  %171 = load float, float* %10, align 4
  %172 = load float, float* %9, align 4
  %173 = fcmp oeq float %171, %172
  br i1 %173, label %174, label %192

174:                                              ; preds = %170
  %175 = load i32, i32* %6, align 4
  %176 = add nsw i32 %175, 1
  store i32 %176, i32* %6, align 4
  %177 = load i32, i32* %6, align 4
  %178 = icmp eq i32 %177, 1
  br i1 %178, label %179, label %185

179:                                              ; preds = %174
  %180 = load i32, i32* %3, align 4
  %181 = sext i32 %180 to i64
  %182 = getelementptr inbounds [300 x i32], [300 x i32]* %5, i64 0, i64 %181
  %183 = load i32, i32* %182, align 4
  %184 = call i32 (i8*, ...) @printf(i8* getelementptr inbounds ([3 x i8], [3 x i8]* @.str, i64 0, i64 0), i32 %183)
  br label %191

185:                                              ; preds = %174
  %186 = load i32, i32* %3, align 4
  %187 = sext i32 %186 to i64
  %188 = getelementptr inbounds [300 x i32], [300 x i32]* %5, i64 0, i64 %187
  %189 = load i32, i32* %188, align 4
  %190 = call i32 (i8*, ...) @printf(i8* getelementptr inbounds ([4 x i8], [4 x i8]* @.str.1, i64 0, i64 0), i32 %189)
  br label %191

191:                                              ; preds = %185, %179
  br label %192

192:                                              ; preds = %191, %170
  br label %193

193:                                              ; preds = %192
  %194 = load i32, i32* %3, align 4
  %195 = add nsw i32 %194, 1
  store i32 %195, i32* %3, align 4
  br label %142

196:                                              ; preds = %142
  ret i32 0
}

declare dso_local i32 @__isoc99_scanf(i8*, ...) #1

declare dso_local i32 @printf(i8*, ...) #1


!llvm.module.flags = !{!0}
!llvm.ident = !{!1}

!0 = !{i32 1, !"wchar_size", i32 4}
!1 = !{!"clang version 10.0.0-4ubuntu1 "}
